; Function Attrs: mustprogress uwtable
define hidden noundef nonnull align 8 dereferenceable(8) ptr @_ZNK11doc_manager7displayERSoRK3doc(ptr noundef nonnull align 8 dereferenceable(1080) %this, ptr noundef nonnull align 8 dereferenceable(8) %out, ptr noundef nonnull align 8 dereferenceable(88) %b) local_unnamed_addr #3 align 2 {
entry:
  %m_num_bits.i.i.i = getelementptr inbounds i8, ptr %this, i64 520
  %0 = load i32, ptr %m_num_bits.i.i.i, align 8
  %cmp = icmp ult i32 %0, 2
  br i1 %cmp, label %if.then, label %if.end

if.then:                                          ; preds = %entry
  %call2 = tail call noundef nonnull align 8 dereferenceable(8) ptr @_ZStlsISt11char_traitsIcEERSt13basic_ostreamIcT_ES5_PKc(ptr noundef nonnull align 8 dereferenceable(8) %out, ptr noundef nonnull @.str.3)
  br label %return

if.end:                                           ; preds = %entry
  %div1.i.i = lshr i32 %0, 1
  %sub = add nsw i32 %div1.i.i, -1
  %1 = load ptr, ptr %b, align 8
  %call2.i = tail call noundef nonnull align 8 dereferenceable(8) ptr @_ZNK11tbv_manager7displayERSoRK3tbvjj(ptr noundef nonnull align 8 dereferenceable(552) %this, ptr noundef nonnull align 8 dereferenceable(8) %out, ptr noundef nonnull align 4 dereferenceable(4) %1, i32 noundef %sub, i32 noundef 0)
  %m_pos.i.i.i = getelementptr inbounds i8, ptr %b, i64 16
  %2 = load i32, ptr %m_pos.i.i.i, align 8
  %cmp.i.i.i = icmp eq i32 %2, 0
  br i1 %cmp.i.i.i, label %return, label %if.end.i

if.end.i:                                         ; preds = %if.end
  %m_neg.i.i = getelementptr inbounds i8, ptr %b, i64 8
  %call5.i = tail call noundef nonnull align 8 dereferenceable(8) ptr @_ZStlsISt11char_traitsIcEERSt13basic_ostreamIcT_ES5_PKc(ptr noundef nonnull align 8 dereferenceable(8) %out, ptr noundef nonnull @.str.4)
  %call8.i = tail call noundef nonnull align 8 dereferenceable(8) ptr @_ZNK10union_bvecI11tbv_manager3tbvE7displayERKS0_RSojj(ptr noundef nonnull align 8 dereferenceable(80) %m_neg.i.i, ptr noundef nonnull align 8 dereferenceable(552) %this, ptr noundef nonnull align 8 dereferenceable(8) %out, i32 noundef %sub, i32 noundef 0)
  br label %return

return:                                           ; preds = %if.end.i, %if.end, %if.then
  %retval.0 = phi ptr [ %call2, %if.then ], [ %out, %if.end ], [ %out, %if.end.i ]
  ret ptr %retval.0
}